; ModuleID = '43/918.c'
source_filename = "43/918.c"
target datalayout = "e-m:e-p270:32:32-p271:32:32-p272:64:64-i64:64-f80:128-n8:16:32:64-S128"
target triple = "x86_64-pc-linux-gnu"

@.str = private unnamed_addr constant [3 x i8] c"%d\00", align 1
@.str.1 = private unnamed_addr constant [7 x i8] c"%d %d\0A\00", align 1

; Function Attrs: noinline nounwind uwtable
define dso_local i32 @main() #0 {
  %1 = alloca i32, align 4
  %2 = alloca i32, align 4
  %3 = alloca i32, align 4
  %4 = alloca i32, align 4
  %5 = alloca i32, align 4
  %6 = alloca i32, align 4
  %7 = alloca i32, align 4
  %8 = alloca i32, align 4
  store i32 0, i32* %1, align 4
  %9 = call i32 (i8*, ...) @__isoc99_scanf(i8* getelementptr inbounds ([3 x i8], [3 x i8]* @.str, i64 0, i64 0), i32* %4)
  store i32 3, i32* %2, align 4
  br label %10

10:                                               ; preds = %72, %0
  %11 = load i32, i32* %2, align 4
  %12 = load i32, i32* %4, align 4
  %13 = sdiv i32 %12, 2
  %14 = icmp sle i32 %11, %13
  br i1 %14, label %15, label %75

15:                                               ; preds = %10
  store i32 3, i32* %7, align 4
  br label %16

16:                                               ; preds = %31, %15
  %17 = load i32, i32* %7, align 4
  %18 = sitofp i32 %17 to double
  %19 = load i32, i32* %2, align 4
  %20 = sitofp i32 %19 to double
  %21 = call double @sqrt(double %20) #3
  %22 = fcmp ole double %18, %21
  br i1 %22, label %23, label %34

23:                                               ; preds = %16
  %24 = load i32, i32* %2, align 4
  %25 = load i32, i32* %7, align 4
  %26 = srem i32 %24, %25
  store i32 %26, i32* %5, align 4
  %27 = load i32, i32* %5, align 4
  %28 = icmp eq i32 %27, 0
  br i1 %28, label %29, label %30

29:                                               ; preds = %23
  br label %34

30:                                               ; preds = %23
  br label %31

31:                                               ; preds = %30
  %32 = load i32, i32* %7, align 4
  %33 = add nsw i32 %32, 2
  store i32 %33, i32* %7, align 4
  br label %16

34:                                               ; preds = %29, %16
  %35 = load i32, i32* %5, align 4
  %36 = icmp ne i32 %35, 0
  br i1 %36, label %37, label %71

37:                                               ; preds = %34
  %38 = load i32, i32* %4, align 4
  %39 = load i32, i32* %2, align 4
  %40 = sub nsw i32 %38, %39
  store i32 %40, i32* %3, align 4
  %41 = load i32, i32* %3, align 4
  %42 = icmp ne i32 %41, 1
  br i1 %42, label %43, label %70

43:                                               ; preds = %37
  store i32 3, i32* %8, align 4
  br label %44

44:                                               ; preds = %59, %43
  %45 = load i32, i32* %8, align 4
  %46 = sitofp i32 %45 to double
  %47 = load i32, i32* %3, align 4
  %48 = sitofp i32 %47 to double
  %49 = call double @sqrt(double %48) #3
  %50 = fcmp ole double %46, %49
  br i1 %50, label %51, label %62

51:                                               ; preds = %44
  %52 = load i32, i32* %3, align 4
  %53 = load i32, i32* %8, align 4
  %54 = srem i32 %52, %53
  store i32 %54, i32* %6, align 4
  %55 = load i32, i32* %6, align 4
  %56 = icmp eq i32 %55, 0
  br i1 %56, label %57, label %58

57:                                               ; preds = %51
  br label %62

58:                                               ; preds = %51
  br label %59

59:                                               ; preds = %58
  %60 = load i32, i32* %8, align 4
  %61 = add nsw i32 %60, 2
  store i32 %61, i32* %8, align 4
  br label %44

62:                                               ; preds = %57, %44
  %63 = load i32, i32* %6, align 4
  %64 = icmp ne i32 %63, 0
  br i1 %64, label %65, label %69

65:                                               ; preds = %62
  %66 = load i32, i32* %2, align 4
  %67 = load i32, i32* %3, align 4
  %68 = call i32 (i8*, ...) @printf(i8* getelementptr inbounds ([7 x i8], [7 x i8]* @.str.1, i64 0, i64 0), i32 %66, i32 %67)
  br label %69

69:                                               ; preds = %65, %62
  br label %70

70:                                               ; preds = %69, %37
  br label %71

71:                                               ; preds = %70, %34
  br label %72

72:                                               ; preds = %71
  %73 = load i32, i32* %2, align 4
  %74 = add nsw i32 %73, 2
  store i32 %74, i32* %2, align 4
  br label %10

75:                                               ; preds = %10
  ret i32 0
}

declare dso_local i32 @__isoc99_scanf(i8*, ...) #1

; Function Attrs: nounwind
declare dso_local double @sqrt(double) #2

declare dso_local i32 @printf(i8*, ...) #1


!llvm.module.flags = !{!0}
!llvm.ident = !{!1}

!0 = !{i32 1, !"wchar_size", i32 4}
!1 = !{!"clang version 10.0.0-4ubuntu1 "}
